target datalayout = "e-m:e-p270:32:32-p271:32:32-p272:64:64-i64:64-i128:128-f80:128-n8:16:32:64-S128"
target triple = "x86_64-pc-linux-gnu"

%"class.cv::utils::trace::details::Region" = type <{ ptr, i32, [4 x i8] }>
%"class.cv::Range" = type { i32, i32 }
%"class.cv::ParallelLoopBody" = type { ptr }
%"struct.cv::hal::cpu_baseline::(anonymous namespace)::HSV2RGB_f" = type { i32, i32, float }
%"class.cv::impl::(anonymous namespace)::CvtColorLoop_Invoker.5" = type { %"class.cv::ParallelLoopBody", ptr, i64, ptr, i64, i32, ptr }

; Function Attrs: mustprogress nounwind uwtable
define internal noundef i32 @_ZL7cvFloorf(float noundef %0) #2 {
  %2 = alloca float, align 4
  store float %0, ptr %2, align 4
  %3 = load float, ptr %2, align 4
  %4 = call float @llvm.floor.f32(float %3)
  %5 = fptosi float %4 to i32
  ret i32 %5
}

; Function Attrs: mustprogress uwtable
define internal void @_ZN2cv3hal12cpu_baseline12_GLOBAL__N_124ComputeSectorAndClampedHERfRi(ptr noundef nonnull align 4 dereferenceable(4) %0, ptr noundef nonnull align 4 dereferenceable(4) %1) #0 {
  %3 = alloca ptr, align 8
  %4 = alloca ptr, align 8
  store ptr %0, ptr %3, align 8
  store ptr %1, ptr %4, align 8
  %5 = load ptr, ptr %3, align 8
  %6 = load float, ptr %5, align 4
  %7 = call noundef i32 @_ZL7cvFloorf(float noundef %6)
  %8 = load ptr, ptr %4, align 8
  store i32 %7, ptr %8, align 4
  %9 = load ptr, ptr %4, align 8
  %10 = load i32, ptr %9, align 4
  %11 = sitofp i32 %10 to float
  %12 = load ptr, ptr %3, align 8
  %13 = load float, ptr %12, align 4
  %14 = fsub float %13, %11
  store float %14, ptr %12, align 4
  %15 = load ptr, ptr %4, align 8
  %16 = load i32, ptr %15, align 4
  %17 = srem i32 %16, 6
  store i32 %17, ptr %15, align 4
  %18 = load ptr, ptr %4, align 8
  %19 = load i32, ptr %18, align 4
  %20 = icmp slt i32 %19, 0
  %21 = select i1 %20, i32 6, i32 0
  %22 = load ptr, ptr %4, align 8
  %23 = load i32, ptr %22, align 4
  %24 = add nsw i32 %23, %21
  store i32 %24, ptr %22, align 4
  ret void
}

; Function Attrs: mustprogress uwtable
define internal void @_ZN2cv3hal12cpu_baseline12_GLOBAL__N_114HSV2RGB_nativeEfffRfS3_S3_f(float noundef %0, float noundef %1, float noundef %2, ptr noundef nonnull align 4 dereferenceable(4) %3, ptr noundef nonnull align 4 dereferenceable(4) %4, ptr noundef nonnull align 4 dereferenceable(4) %5, float noundef %6) #0 {
  %8 = alloca float, align 4
  %9 = alloca float, align 4
  %10 = alloca float, align 4
  %11 = alloca ptr, align 8
  %12 = alloca ptr, align 8
  %13 = alloca ptr, align 8
  %14 = alloca float, align 4
  %15 = alloca [4 x float], align 16
  %16 = alloca i32, align 4
  store float %0, ptr %8, align 4
  store float %1, ptr %9, align 4
  store float %2, ptr %10, align 4
  store ptr %3, ptr %11, align 8
  store ptr %4, ptr %12, align 8
  store ptr %5, ptr %13, align 8
  store float %6, ptr %14, align 4
  %17 = load float, ptr %9, align 4
  %18 = fcmp oeq float %17, 0.000000e+00
  br i1 %18, label %19, label %24

19:                                               ; preds = %7
  %20 = load float, ptr %10, align 4
  %21 = load ptr, ptr %13, align 8
  store float %20, ptr %21, align 4
  %22 = load ptr, ptr %12, align 8
  store float %20, ptr %22, align 4
  %23 = load ptr, ptr %11, align 8
  store float %20, ptr %23, align 4
  br label %77

24:                                               ; preds = %7
  %25 = load float, ptr %14, align 4
  %26 = load float, ptr %8, align 4
  %27 = fmul float %26, %25
  store float %27, ptr %8, align 4
  call void @_ZN2cv3hal12cpu_baseline12_GLOBAL__N_124ComputeSectorAndClampedHERfRi(ptr noundef nonnull align 4 dereferenceable(4) %8, ptr noundef nonnull align 4 dereferenceable(4) %16)
  %28 = load float, ptr %10, align 4
  %29 = getelementptr inbounds [4 x float], ptr %15, i64 0, i64 0
  store float %28, ptr %29, align 16
  %30 = load float, ptr %10, align 4
  %31 = load float, ptr %9, align 4
  %32 = fsub float 1.000000e+00, %31
  %33 = fmul float %30, %32
  %34 = getelementptr inbounds [4 x float], ptr %15, i64 0, i64 1
  store float %33, ptr %34, align 4
  %35 = load float, ptr %10, align 4
  %36 = load float, ptr %9, align 4
  %37 = load float, ptr %8, align 4
  %38 = fneg float %36
  %39 = call float @llvm.fmuladd.f32(float %38, float %37, float 1.000000e+00)
  %40 = fmul float %35, %39
  %41 = getelementptr inbounds [4 x float], ptr %15, i64 0, i64 2
  store float %40, ptr %41, align 8
  %42 = load float, ptr %10, align 4
  %43 = load float, ptr %9, align 4
  %44 = load float, ptr %8, align 4
  %45 = fsub float 1.000000e+00, %44
  %46 = fneg float %43
  %47 = call float @llvm.fmuladd.f32(float %46, float %45, float 1.000000e+00)
  %48 = fmul float %42, %47
  %49 = getelementptr inbounds [4 x float], ptr %15, i64 0, i64 3
  store float %48, ptr %49, align 4
  %50 = load i32, ptr %16, align 4
  %51 = sext i32 %50 to i64
  %52 = getelementptr inbounds [6 x [3 x i32]], ptr @_ZZN2cv3hal12cpu_baseline12_GLOBAL__N_114HSV2RGB_nativeEfffRfS3_S3_fE11sector_data, i64 0, i64 %51
  %53 = getelementptr inbounds [3 x i32], ptr %52, i64 0, i64 0
  %54 = load i32, ptr %53, align 4
  %55 = sext i32 %54 to i64
  %56 = getelementptr inbounds [4 x float], ptr %15, i64 0, i64 %55
  %57 = load float, ptr %56, align 4
  %58 = load ptr, ptr %11, align 8
  store float %57, ptr %58, align 4
  %59 = load i32, ptr %16, align 4
  %60 = sext i32 %59 to i64
  %61 = getelementptr inbounds [6 x [3 x i32]], ptr @_ZZN2cv3hal12cpu_baseline12_GLOBAL__N_114HSV2RGB_nativeEfffRfS3_S3_fE11sector_data, i64 0, i64 %60
  %62 = getelementptr inbounds [3 x i32], ptr %61, i64 0, i64 1
  %63 = load i32, ptr %62, align 4
  %64 = sext i32 %63 to i64
  %65 = getelementptr inbounds [4 x float], ptr %15, i64 0, i64 %64
  %66 = load float, ptr %65, align 4
  %67 = load ptr, ptr %12, align 8
  store float %66, ptr %67, align 4
  %68 = load i32, ptr %16, align 4
  %69 = sext i32 %68 to i64
  %70 = getelementptr inbounds [6 x [3 x i32]], ptr @_ZZN2cv3hal12cpu_baseline12_GLOBAL__N_114HSV2RGB_nativeEfffRfS3_S3_fE11sector_data, i64 0, i64 %69
  %71 = getelementptr inbounds [3 x i32], ptr %70, i64 0, i64 2
  %72 = load i32, ptr %71, align 4
  %73 = sext i32 %72 to i64
  %74 = getelementptr inbounds [4 x float], ptr %15, i64 0, i64 %73
  %75 = load float, ptr %74, align 4
  %76 = load ptr, ptr %13, align 8
  store float %75, ptr %76, align 4
  br label %77

77:                                               ; preds = %24, %19
  ret void
}

; Function Attrs: mustprogress nounwind uwtable
define internal noundef float @_ZN2cv4impl12_GLOBAL__N_112ColorChannelIfE3maxEv() #2 align 2 {
  ret float 1.000000e+00
}

; Function Attrs: mustprogress uwtable
define internal void @_ZNK2cv3hal12cpu_baseline12_GLOBAL__N_19HSV2RGB_fclEPKfPfi(ptr noundef nonnull align 4 dereferenceable(12) %0, ptr noundef %1, ptr noundef %2, i32 noundef %3) #0 align 2 personality ptr @__gxx_personality_v0 {
  %5 = alloca ptr, align 8
  %6 = alloca ptr, align 8
  %7 = alloca ptr, align 8
  %8 = alloca i32, align 4
  %9 = alloca %"class.cv::utils::trace::details::Region", align 8
  %10 = alloca i32, align 4
  %11 = alloca i32, align 4
  %12 = alloca i32, align 4
  %13 = alloca float, align 4
  %14 = alloca ptr, align 8
  %15 = alloca i32, align 4
  %16 = alloca float, align 4
  %17 = alloca float, align 4
  %18 = alloca float, align 4
  %19 = alloca float, align 4
  %20 = alloca float, align 4
  %21 = alloca float, align 4
  %22 = alloca float, align 4
  store ptr %0, ptr %5, align 8
  store ptr %1, ptr %6, align 8
  store ptr %2, ptr %7, align 8
  store i32 %3, ptr %8, align 4
  %23 = load ptr, ptr %5, align 8
  call void @_ZN2cv5utils5trace7details6RegionC1ERKNS3_21LocationStaticStorageE(ptr noundef nonnull align 8 dereferenceable(12) %9, ptr noundef nonnull align 8 dereferenceable(32) @_ZZNK2cv3hal12cpu_baseline12_GLOBAL__N_19HSV2RGB_fclEPKfPfiE25__cv_trace_location_fn469)
  store i32 0, ptr %10, align 4
  %24 = getelementptr inbounds %"struct.cv::hal::cpu_baseline::(anonymous namespace)::HSV2RGB_f", ptr %23, i32 0, i32 1
  %25 = load i32, ptr %24, align 4
  store i32 %25, ptr %11, align 4
  %26 = getelementptr inbounds %"struct.cv::hal::cpu_baseline::(anonymous namespace)::HSV2RGB_f", ptr %23, i32 0, i32 0
  %27 = load i32, ptr %26, align 4
  store i32 %27, ptr %12, align 4
  %28 = invoke noundef float @_ZN2cv4impl12_GLOBAL__N_112ColorChannelIfE3maxEv()
          to label %29 unwind label %82

29:                                               ; preds = %4
  store float %28, ptr %13, align 4
  %30 = getelementptr inbounds %"struct.cv::hal::cpu_baseline::(anonymous namespace)::HSV2RGB_f", ptr %23, i32 0, i32 2
  %31 = load float, ptr %30, align 4
  store float %31, ptr %16, align 4
  %32 = load i32, ptr %8, align 4
  %33 = mul nsw i32 %32, 3
  store i32 %33, ptr %8, align 4
  br label %34

34:                                               ; preds = %87, %29
  %35 = load i32, ptr %10, align 4
  %36 = load i32, ptr %8, align 4
  %37 = icmp slt i32 %35, %36
  br i1 %37, label %38, label %94

38:                                               ; preds = %34
  %39 = load ptr, ptr %6, align 8
  %40 = load i32, ptr %10, align 4
  %41 = add nsw i32 %40, 0
  %42 = sext i32 %41 to i64
  %43 = getelementptr inbounds float, ptr %39, i64 %42
  %44 = load float, ptr %43, align 4
  store float %44, ptr %17, align 4
  %45 = load ptr, ptr %6, align 8
  %46 = load i32, ptr %10, align 4
  %47 = add nsw i32 %46, 1
  %48 = sext i32 %47 to i64
  %49 = getelementptr inbounds float, ptr %45, i64 %48
  %50 = load float, ptr %49, align 4
  store float %50, ptr %18, align 4
  %51 = load ptr, ptr %6, align 8
  %52 = load i32, ptr %10, align 4
  %53 = add nsw i32 %52, 2
  %54 = sext i32 %53 to i64
  %55 = getelementptr inbounds float, ptr %51, i64 %54
  %56 = load float, ptr %55, align 4
  store float %56, ptr %19, align 4
  %57 = load float, ptr %17, align 4
  %58 = load float, ptr %18, align 4
  %59 = load float, ptr %19, align 4
  %60 = load float, ptr %16, align 4
  invoke void @_ZN2cv3hal12cpu_baseline12_GLOBAL__N_114HSV2RGB_nativeEfffRfS3_S3_f(float noundef %57, float noundef %58, float noundef %59, ptr noundef nonnull align 4 dereferenceable(4) %20, ptr noundef nonnull align 4 dereferenceable(4) %21, ptr noundef nonnull align 4 dereferenceable(4) %22, float noundef %60)
          to label %61 unwind label %82

61:                                               ; preds = %38
  %62 = load float, ptr %20, align 4
  %63 = load ptr, ptr %7, align 8
  %64 = load i32, ptr %11, align 4
  %65 = sext i32 %64 to i64
  %66 = getelementptr inbounds float, ptr %63, i64 %65
  store float %62, ptr %66, align 4
  %67 = load float, ptr %21, align 4
  %68 = load ptr, ptr %7, align 8
  %69 = getelementptr inbounds float, ptr %68, i64 1
  store float %67, ptr %69, align 4
  %70 = load float, ptr %22, align 4
  %71 = load ptr, ptr %7, align 8
  %72 = load i32, ptr %11, align 4
  %73 = xor i32 %72, 2
  %74 = sext i32 %73 to i64
  %75 = getelementptr inbounds float, ptr %71, i64 %74
  store float %70, ptr %75, align 4
  %76 = load i32, ptr %12, align 4
  %77 = icmp eq i32 %76, 4
  br i1 %77, label %78, label %86

78:                                               ; preds = %61
  %79 = load float, ptr %13, align 4
  %80 = load ptr, ptr %7, align 8
  %81 = getelementptr inbounds float, ptr %80, i64 3
  store float %79, ptr %81, align 4
  br label %86

82:                                               ; preds = %38, %4
  %83 = landingpad { ptr, i32 }
          cleanup
  %84 = extractvalue { ptr, i32 } %83, 0
  store ptr %84, ptr %14, align 8
  %85 = extractvalue { ptr, i32 } %83, 1
  store i32 %85, ptr %15, align 4
  call void @_ZN2cv5utils5trace7details6RegionD2Ev(ptr noundef nonnull align 8 dereferenceable(12) %9) #5
  br label %95

86:                                               ; preds = %78, %61
  br label %87

87:                                               ; preds = %86
  %88 = load i32, ptr %10, align 4
  %89 = add nsw i32 %88, 3
  store i32 %89, ptr %10, align 4
  %90 = load i32, ptr %12, align 4
  %91 = load ptr, ptr %7, align 8
  %92 = sext i32 %90 to i64
  %93 = getelementptr inbounds float, ptr %91, i64 %92
  store ptr %93, ptr %7, align 8
  br label %34, !llvm.loop !20

94:                                               ; preds = %34
  call void @_ZN2cv5utils5trace7details6RegionD2Ev(ptr noundef nonnull align 8 dereferenceable(12) %9) #5
  ret void

95:                                               ; preds = %82
  %96 = load ptr, ptr %14, align 8
  %97 = load i32, ptr %15, align 4
  %98 = insertvalue { ptr, i32 } poison, ptr %96, 0
  %99 = insertvalue { ptr, i32 } %98, i32 %97, 1
  resume { ptr, i32 } %99
}

; Function Attrs: mustprogress uwtable
define internal void @_ZNK2cv4impl12_GLOBAL__N_120CvtColorLoop_InvokerINS_3hal12cpu_baseline12_GLOBAL__N_19HSV2RGB_fEEclERKNS_5RangeE(ptr noundef nonnull align 8 dereferenceable(56) %0, ptr noundef nonnull align 4 dereferenceable(8) %1) unnamed_addr #0 align 2 personality ptr @__gxx_personality_v0 {
  %3 = alloca ptr, align 8
  %4 = alloca ptr, align 8
  %5 = alloca %"class.cv::utils::trace::details::Region", align 8
  %6 = alloca ptr, align 8
  %7 = alloca ptr, align 8
  %8 = alloca i32, align 4
  %9 = alloca ptr, align 8
  %10 = alloca i32, align 4
  store ptr %0, ptr %3, align 8
  store ptr %1, ptr %4, align 8
  %11 = load ptr, ptr %3, align 8
  call void @_ZN2cv5utils5trace7details6RegionC1ERKNS3_21LocationStaticStorageE(ptr noundef nonnull align 8 dereferenceable(12) %5, ptr noundef nonnull align 8 dereferenceable(32) @_ZZNK2cv4impl12_GLOBAL__N_120CvtColorLoop_InvokerINS_3hal12cpu_baseline12_GLOBAL__N_19HSV2RGB_fEEclERKNS_5RangeEE25__cv_trace_location_fn146)
  %12 = getelementptr inbounds %"class.cv::impl::(anonymous namespace)::CvtColorLoop_Invoker.5", ptr %11, i32 0, i32 1
  %13 = load ptr, ptr %12, align 8
  %14 = load ptr, ptr %4, align 8
  %15 = getelementptr inbounds %"class.cv::Range", ptr %14, i32 0, i32 0
  %16 = load i32, ptr %15, align 4
  %17 = sext i32 %16 to i64
  %18 = getelementptr inbounds %"class.cv::impl::(anonymous namespace)::CvtColorLoop_Invoker.5", ptr %11, i32 0, i32 2
  %19 = load i64, ptr %18, align 8
  %20 = mul i64 %17, %19
  %21 = getelementptr inbounds i8, ptr %13, i64 %20
  store ptr %21, ptr %6, align 8
  %22 = getelementptr inbounds %"class.cv::impl::(anonymous namespace)::CvtColorLoop_Invoker.5", ptr %11, i32 0, i32 3
  %23 = load ptr, ptr %22, align 8
  %24 = load ptr, ptr %4, align 8
  %25 = getelementptr inbounds %"class.cv::Range", ptr %24, i32 0, i32 0
  %26 = load i32, ptr %25, align 4
  %27 = sext i32 %26 to i64
  %28 = getelementptr inbounds %"class.cv::impl::(anonymous namespace)::CvtColorLoop_Invoker.5", ptr %11, i32 0, i32 4
  %29 = load i64, ptr %28, align 8
  %30 = mul i64 %27, %29
  %31 = getelementptr inbounds i8, ptr %23, i64 %30
  store ptr %31, ptr %7, align 8
  %32 = load ptr, ptr %4, align 8
  %33 = getelementptr inbounds %"class.cv::Range", ptr %32, i32 0, i32 0
  %34 = load i32, ptr %33, align 4
  store i32 %34, ptr %8, align 4
  br label %35

35:                                               ; preds = %49, %2
  %36 = load i32, ptr %8, align 4
  %37 = load ptr, ptr %4, align 8
  %38 = getelementptr inbounds %"class.cv::Range", ptr %37, i32 0, i32 1
  %39 = load i32, ptr %38, align 4
  %40 = icmp slt i32 %36, %39
  br i1 %40, label %41, label %64

41:                                               ; preds = %35
  %42 = getelementptr inbounds %"class.cv::impl::(anonymous namespace)::CvtColorLoop_Invoker.5", ptr %11, i32 0, i32 6
  %43 = load ptr, ptr %42, align 8
  %44 = load ptr, ptr %6, align 8
  %45 = load ptr, ptr %7, align 8
  %46 = getelementptr inbounds %"class.cv::impl::(anonymous namespace)::CvtColorLoop_Invoker.5", ptr %11, i32 0, i32 5
  %47 = load i32, ptr %46, align 8
  invoke void @_ZNK2cv3hal12cpu_baseline12_GLOBAL__N_19HSV2RGB_fclEPKfPfi(ptr noundef nonnull align 4 dereferenceable(12) %43, ptr noundef %44, ptr noundef %45, i32 noundef %47)
          to label %48 unwind label %60

48:                                               ; preds = %41
  br label %49

49:                                               ; preds = %48
  %50 = load i32, ptr %8, align 4
  %51 = add nsw i32 %50, 1
  store i32 %51, ptr %8, align 4
  %52 = getelementptr inbounds %"class.cv::impl::(anonymous namespace)::CvtColorLoop_Invoker.5", ptr %11, i32 0, i32 2
  %53 = load i64, ptr %52, align 8
  %54 = load ptr, ptr %6, align 8
  %55 = getelementptr inbounds i8, ptr %54, i64 %53
  store ptr %55, ptr %6, align 8
  %56 = getelementptr inbounds %"class.cv::impl::(anonymous namespace)::CvtColorLoop_Invoker.5", ptr %11, i32 0, i32 4
  %57 = load i64, ptr %56, align 8
  %58 = load ptr, ptr %7, align 8
  %59 = getelementptr inbounds i8, ptr %58, i64 %57
  store ptr %59, ptr %7, align 8
  br label %35, !llvm.loop !19

60:                                               ; preds = %41
  %61 = landingpad { ptr, i32 }
          cleanup
  %62 = extractvalue { ptr, i32 } %61, 0
  store ptr %62, ptr %9, align 8
  %63 = extractvalue { ptr, i32 } %61, 1
  store i32 %63, ptr %10, align 4
  call void @_ZN2cv5utils5trace7details6RegionD2Ev(ptr noundef nonnull align 8 dereferenceable(12) %5) #5
  br label %65

64:                                               ; preds = %35
  call void @_ZN2cv5utils5trace7details6RegionD2Ev(ptr noundef nonnull align 8 dereferenceable(12) %5) #5
  ret void

65:                                               ; preds = %60
  %66 = load ptr, ptr %9, align 8
  %67 = load i32, ptr %10, align 4
  %68 = insertvalue { ptr, i32 } poison, ptr %66, 0
  %69 = insertvalue { ptr, i32 } %68, i32 %67, 1
  resume { ptr, i32 } %69
}