; Function Attrs: mustprogress uwtable
define internal void @_ZNK2cv4impl12_GLOBAL__N_120CvtColorLoop_InvokerINS_3hal12cpu_baseline12_GLOBAL__N_19HSV2RGB_fEEclERKNS_5RangeE(ptr nocapture noundef nonnull readonly align 8 dereferenceable(56) %0, ptr nocapture noundef nonnull readonly align 4 dereferenceable(8) %1) unnamed_addr #0 align 2 personality ptr @__gxx_personality_v0 {
  %3 = alloca [4 x float], align 16
  %4 = alloca %"class.cv::utils::trace::details::Region", align 8
  %5 = alloca %"class.cv::utils::trace::details::Region", align 8
  call void @_ZN2cv5utils5trace7details6RegionC1ERKNS3_21LocationStaticStorageE(ptr noundef nonnull align 8 dereferenceable(12) %5, ptr noundef nonnull align 8 dereferenceable(32) @_ZZNK2cv4impl12_GLOBAL__N_120CvtColorLoop_InvokerINS_3hal12cpu_baseline12_GLOBAL__N_19HSV2RGB_fEEclERKNS_5RangeEE25__cv_trace_location_fn146)
  %6 = load i32, ptr %1, align 4
  %7 = getelementptr inbounds i8, ptr %0, i64 16
  %8 = getelementptr inbounds i8, ptr %0, i64 32
  %9 = getelementptr inbounds i8, ptr %1, i64 4
  %10 = load i32, ptr %9, align 4
  %11 = icmp slt i32 %6, %10
  br i1 %11, label %.lr.ph, label %._crit_edge

.lr.ph:                                           ; preds = %2
  %12 = getelementptr inbounds i8, ptr %0, i64 24
  %13 = load ptr, ptr %12, align 8
  %14 = load i64, ptr %8, align 8
  %15 = sext i32 %6 to i64
  %16 = mul i64 %14, %15
  %17 = getelementptr inbounds i8, ptr %13, i64 %16
  %18 = getelementptr inbounds i8, ptr %0, i64 8
  %19 = load ptr, ptr %18, align 8
  %20 = load i64, ptr %7, align 8
  %21 = mul i64 %20, %15
  %22 = getelementptr inbounds i8, ptr %19, i64 %21
  %23 = getelementptr inbounds i8, ptr %0, i64 48
  %24 = getelementptr inbounds i8, ptr %0, i64 40
  %25 = getelementptr inbounds i8, ptr %3, i64 4
  %26 = getelementptr inbounds i8, ptr %3, i64 12
  %27 = getelementptr inbounds i8, ptr %4, i64 8
  br label %28

28:                                               ; preds = %.lr.ph, %103
  %.016 = phi ptr [ %22, %.lr.ph ], [ %106, %103 ]
  %.01215 = phi ptr [ %17, %.lr.ph ], [ %108, %103 ]
  %.01314 = phi i32 [ %6, %.lr.ph ], [ %104, %103 ]
  %29 = load ptr, ptr %23, align 8
  %30 = load i32, ptr %24, align 8
  call void @llvm.lifetime.start.p0(i64 16, ptr nonnull %4)
  invoke void @_ZN2cv5utils5trace7details6RegionC1ERKNS3_21LocationStaticStorageE(ptr noundef nonnull align 8 dereferenceable(12) %4, ptr noundef nonnull align 8 dereferenceable(32) @_ZZNK2cv3hal12cpu_baseline12_GLOBAL__N_19HSV2RGB_fclEPKfPfiE25__cv_trace_location_fn469)
          to label %.noexc unwind label %111

.noexc:                                           ; preds = %28
  %31 = getelementptr inbounds i8, ptr %29, i64 8
  %32 = load float, ptr %31, align 4
  %33 = icmp sgt i32 %30, 0
  br i1 %33, label %.lr.ph.i, label %._crit_edge.i

.lr.ph.i:                                         ; preds = %.noexc
  %34 = mul nuw nsw i32 %30, 3
  %35 = load i32, ptr %29, align 4
  %36 = getelementptr inbounds i8, ptr %29, i64 4
  %37 = load i32, ptr %36, align 4
  %38 = sext i32 %37 to i64
  %39 = xor i32 %37, 2
  %40 = sext i32 %39 to i64
  %41 = icmp eq i32 %35, 4
  %42 = sext i32 %35 to i64
  %43 = zext nneg i32 %34 to i64
  br label %44

44:                                               ; preds = %95, %.lr.ph.i
  %indvars.iv.i = phi i64 [ 0, %.lr.ph.i ], [ %indvars.iv.next.i, %95 ]
  %.033.i = phi ptr [ %.01215, %.lr.ph.i ], [ %96, %95 ]
  %45 = getelementptr inbounds float, ptr %.016, i64 %indvars.iv.i
  %46 = load float, ptr %45, align 4
  %47 = getelementptr inbounds i8, ptr %45, i64 4
  %48 = load float, ptr %47, align 4
  %49 = getelementptr inbounds i8, ptr %45, i64 8
  %50 = load float, ptr %49, align 4
  call void @llvm.lifetime.start.p0(i64 16, ptr nonnull %3)
  %51 = fcmp oeq float %48, 0.000000e+00
  br i1 %51, label %89, label %52

52:                                               ; preds = %44
  %53 = fmul float %32, %46
  %54 = call float @llvm.floor.f32(float %53)
  %55 = fptosi float %54 to i32
  %56 = sitofp i32 %55 to float
  %57 = fsub float %53, %56
  %58 = srem i32 %55, 6
  %59 = icmp slt i32 %58, 0
  %60 = select i1 %59, i32 6, i32 0
  %61 = add nsw i32 %60, %58
  store float %50, ptr %3, align 16
  %62 = fsub float 1.000000e+00, %48
  %63 = fneg float %48
  %64 = call float @llvm.fmuladd.f32(float %63, float %57, float 1.000000e+00)
  %65 = insertelement <2 x float> poison, float %62, i64 0
  %66 = insertelement <2 x float> %65, float %64, i64 1
  %67 = insertelement <2 x float> poison, float %50, i64 0
  %68 = shufflevector <2 x float> %67, <2 x float> poison, <2 x i32> zeroinitializer
  %69 = fmul <2 x float> %66, %68
  store <2 x float> %69, ptr %25, align 4
  %70 = fsub float 1.000000e+00, %57
  %71 = call float @llvm.fmuladd.f32(float %63, float %70, float 1.000000e+00)
  %72 = fmul float %50, %71
  store float %72, ptr %26, align 4
  %73 = sext i32 %61 to i64
  %74 = getelementptr inbounds [6 x [3 x i32]], ptr @_ZZNK2cv3hal12cpu_baseline12_GLOBAL__N_19HLS2RGB_fclEPKfPfiE11sector_data, i64 0, i64 %73
  %75 = load i32, ptr %74, align 4
  %76 = sext i32 %75 to i64
  %77 = getelementptr inbounds [4 x float], ptr %3, i64 0, i64 %76
  %78 = load float, ptr %77, align 4
  %79 = getelementptr inbounds [6 x [3 x i32]], ptr @_ZZNK2cv3hal12cpu_baseline12_GLOBAL__N_19HLS2RGB_fclEPKfPfiE11sector_data, i64 0, i64 %73, i64 1
  %80 = load i32, ptr %79, align 4
  %81 = sext i32 %80 to i64
  %82 = getelementptr inbounds [4 x float], ptr %3, i64 0, i64 %81
  %83 = load float, ptr %82, align 4
  %84 = getelementptr inbounds [6 x [3 x i32]], ptr @_ZZNK2cv3hal12cpu_baseline12_GLOBAL__N_19HLS2RGB_fclEPKfPfiE11sector_data, i64 0, i64 %73, i64 2
  %85 = load i32, ptr %84, align 4
  %86 = sext i32 %85 to i64
  %87 = getelementptr inbounds [4 x float], ptr %3, i64 0, i64 %86
  %88 = load float, ptr %87, align 4
  br label %89

89:                                               ; preds = %52, %44
  %.031.i = phi float [ %78, %52 ], [ %50, %44 ]
  %.030.i = phi float [ %83, %52 ], [ %50, %44 ]
  %.029.i = phi float [ %88, %52 ], [ %50, %44 ]
  call void @llvm.lifetime.end.p0(i64 16, ptr nonnull %3)
  %90 = getelementptr inbounds float, ptr %.033.i, i64 %38
  store float %.031.i, ptr %90, align 4
  %91 = getelementptr inbounds i8, ptr %.033.i, i64 4
  store float %.030.i, ptr %91, align 4
  %92 = getelementptr inbounds float, ptr %.033.i, i64 %40
  store float %.029.i, ptr %92, align 4
  br i1 %41, label %93, label %95

93:                                               ; preds = %89
  %94 = getelementptr inbounds i8, ptr %.033.i, i64 12
  store float 1.000000e+00, ptr %94, align 4
  br label %95

95:                                               ; preds = %93, %89
  %indvars.iv.next.i = add nuw nsw i64 %indvars.iv.i, 3
  %96 = getelementptr inbounds float, ptr %.033.i, i64 %42
  %97 = icmp ult i64 %indvars.iv.next.i, %43
  br i1 %97, label %44, label %._crit_edge.i, !llvm.loop !31

._crit_edge.i:                                    ; preds = %95, %.noexc
  %98 = load i32, ptr %27, align 8
  %.not.i.i = icmp eq i32 %98, 0
  br i1 %.not.i.i, label %103, label %99

99:                                               ; preds = %._crit_edge.i
  invoke void @_ZN2cv5utils5trace7details6Region7destroyEv(ptr noundef nonnull align 8 dereferenceable(12) %4)
          to label %103 unwind label %100

100:                                              ; preds = %99
  %101 = landingpad { ptr, i32 }
          catch ptr null
  %102 = extractvalue { ptr, i32 } %101, 0
  call void @__clang_call_terminate(ptr %102) #15
  unreachable

103:                                              ; preds = %99, %._crit_edge.i
  call void @llvm.lifetime.end.p0(i64 16, ptr nonnull %4)
  %104 = add nsw i32 %.01314, 1
  %105 = load i64, ptr %7, align 8
  %106 = getelementptr inbounds i8, ptr %.016, i64 %105
  %107 = load i64, ptr %8, align 8
  %108 = getelementptr inbounds i8, ptr %.01215, i64 %107
  %109 = load i32, ptr %9, align 4
  %110 = icmp slt i32 %104, %109
  br i1 %110, label %28, label %._crit_edge, !llvm.loop !32

111:                                              ; preds = %28
  %112 = landingpad { ptr, i32 }
          cleanup
  call void @_ZN2cv5utils5trace7details6RegionD2Ev(ptr noundef nonnull align 8 dereferenceable(12) %5) #14
  resume { ptr, i32 } %112

._crit_edge:                                      ; preds = %103, %2
  %113 = getelementptr inbounds i8, ptr %5, i64 8
  %114 = load i32, ptr %113, align 8
  %.not.i = icmp eq i32 %114, 0
  br i1 %.not.i, label %_ZN2cv5utils5trace7details6RegionD2Ev.exit, label %115

115:                                              ; preds = %._crit_edge
  invoke void @_ZN2cv5utils5trace7details6Region7destroyEv(ptr noundef nonnull align 8 dereferenceable(12) %5)
          to label %_ZN2cv5utils5trace7details6RegionD2Ev.exit unwind label %116

116:                                              ; preds = %115
  %117 = landingpad { ptr, i32 }
          catch ptr null
  %118 = extractvalue { ptr, i32 } %117, 0
  call void @__clang_call_terminate(ptr %118) #15
  unreachable

_ZN2cv5utils5trace7details6RegionD2Ev.exit:       ; preds = %._crit_edge, %115
  ret void
}